; Function Attrs: mustprogress nofree norecurse nosync nounwind willreturn memory(read, argmem: readwrite, inaccessiblemem: none) uwtable
define internal fastcc range(i32 0, 128) i32 @decode_cabac_mb_intra4x4_pred_mode(ptr noundef captures(none) %0, i32 noundef range(i32 0, 128) %1) unnamed_addr #3 {
  %3 = getelementptr inbounds nuw i8, ptr %0, i64 33664
  %4 = getelementptr inbounds nuw i8, ptr %0, i64 33764
  %5 = load i8, ptr %4, align 1, !tbaa !77
  %6 = zext i8 %5 to i32
  %7 = getelementptr inbounds nuw i8, ptr %0, i64 33668
  %8 = load i32, ptr %7, align 4, !tbaa !138
  %9 = shl i32 %8, 1
  %10 = and i32 %9, 384
  %11 = add nuw nsw i32 %10, %6
  %12 = zext nneg i32 %11 to i64
  %13 = getelementptr inbounds nuw i8, ptr getelementptr inbounds nuw (i8, ptr @ff_h264_cabac_tables, i64 512), i64 %12
  %14 = load i8, ptr %13, align 1, !tbaa !77
  %15 = zext i8 %14 to i32
  %16 = sub nsw i32 %8, %15
  %17 = shl i32 %16, 17
  %18 = load i32, ptr %3, align 8, !tbaa !139
  %19 = icmp slt i32 %17, %18
  %20 = sext i1 %19 to i32
  %21 = select i1 %19, i32 %17, i32 0
  %22 = sub nsw i32 %18, %21
  %23 = select i1 %19, i32 %15, i32 %16
  %24 = xor i32 %20, %6
  %25 = sext i32 %24 to i64
  %26 = getelementptr inbounds i8, ptr getelementptr inbounds nuw (i8, ptr @ff_h264_cabac_tables, i64 1152), i64 %25
  %27 = load i8, ptr %26, align 1, !tbaa !77
  store i8 %27, ptr %4, align 1, !tbaa !77
  %28 = sext i32 %23 to i64
  %29 = getelementptr inbounds i8, ptr @ff_h264_cabac_tables, i64 %28
  %30 = load i8, ptr %29, align 1, !tbaa !77
  %31 = zext i8 %30 to i32
  %32 = shl i32 %23, %31
  store i32 %32, ptr %7, align 4, !tbaa !138
  %33 = shl i32 %22, %31
  store i32 %33, ptr %3, align 8, !tbaa !139
  %34 = and i32 %33, 65535
  %.not.i.i = icmp eq i32 %34, 0
  br i1 %.not.i.i, label %35, label %get_cabac.exit

35:                                               ; preds = %2
  %36 = add nsw i32 %33, -1
  %37 = xor i32 %36, %33
  %38 = lshr i32 %37, 15
  %39 = zext nneg i32 %38 to i64
  %40 = getelementptr inbounds nuw i8, ptr @ff_h264_cabac_tables, i64 %39
  %41 = load i8, ptr %40, align 1, !tbaa !77
  %42 = zext i8 %41 to i32
  %43 = sub nsw i32 7, %42
  %44 = getelementptr inbounds nuw i8, ptr %0, i64 33680
  %45 = load ptr, ptr %44, align 8, !tbaa !140
  %46 = load i8, ptr %45, align 1, !tbaa !77
  %47 = zext i8 %46 to i32
  %48 = shl nuw nsw i32 %47, 9
  %49 = getelementptr inbounds nuw i8, ptr %45, i64 1
  %50 = load i8, ptr %49, align 1, !tbaa !77
  %51 = zext i8 %50 to i32
  %52 = shl nuw nsw i32 %51, 1
  %53 = or disjoint i32 %52, %48
  %54 = add nsw i32 %53, -65535
  %55 = shl nsw i32 %54, %43
  %56 = add i32 %55, %33
  store i32 %56, ptr %3, align 8, !tbaa !139
  %57 = getelementptr inbounds nuw i8, ptr %45, i64 2
  store ptr %57, ptr %44, align 8, !tbaa !140
  br label %get_cabac.exit

get_cabac.exit:                                   ; preds = %2, %35
  %58 = phi i32 [ %33, %2 ], [ %56, %35 ]
  %59 = and i32 %24, 1
  %.not = icmp eq i32 %59, 0
  br i1 %.not, label %60, label %222

60:                                               ; preds = %get_cabac.exit
  %61 = getelementptr inbounds nuw i8, ptr %0, i64 33765
  %62 = load i8, ptr %61, align 1, !tbaa !77
  %63 = zext i8 %62 to i32
  %64 = shl i32 %32, 1
  %65 = and i32 %64, 384
  %66 = add nuw nsw i32 %65, %63
  %67 = zext nneg i32 %66 to i64
  %68 = getelementptr inbounds nuw i8, ptr getelementptr inbounds nuw (i8, ptr @ff_h264_cabac_tables, i64 512), i64 %67
  %69 = load i8, ptr %68, align 1, !tbaa !77
  %70 = zext i8 %69 to i32
  %71 = sub nsw i32 %32, %70
  %72 = shl i32 %71, 17
  %73 = icmp slt i32 %72, %58
  %74 = sext i1 %73 to i32
  %75 = select i1 %73, i32 %72, i32 0
  %76 = sub nsw i32 %58, %75
  %77 = select i1 %73, i32 %70, i32 %71
  %78 = xor i32 %74, %63
  %79 = sext i32 %78 to i64
  %80 = getelementptr inbounds i8, ptr getelementptr inbounds nuw (i8, ptr @ff_h264_cabac_tables, i64 1152), i64 %79
  %81 = load i8, ptr %80, align 1, !tbaa !77
  store i8 %81, ptr %61, align 1, !tbaa !77
  %82 = sext i32 %77 to i64
  %83 = getelementptr inbounds i8, ptr @ff_h264_cabac_tables, i64 %82
  %84 = load i8, ptr %83, align 1, !tbaa !77
  %85 = zext i8 %84 to i32
  %86 = shl i32 %77, %85
  store i32 %86, ptr %7, align 4, !tbaa !138
  %87 = shl i32 %76, %85
  store i32 %87, ptr %3, align 8, !tbaa !139
  %88 = and i32 %87, 65535
  %.not.i.i15 = icmp eq i32 %88, 0
  br i1 %.not.i.i15, label %89, label %get_cabac.exit16

89:                                               ; preds = %60
  %90 = add nsw i32 %87, -1
  %91 = xor i32 %90, %87
  %92 = lshr i32 %91, 15
  %93 = zext nneg i32 %92 to i64
  %94 = getelementptr inbounds nuw i8, ptr @ff_h264_cabac_tables, i64 %93
  %95 = load i8, ptr %94, align 1, !tbaa !77
  %96 = zext i8 %95 to i32
  %97 = sub nsw i32 7, %96
  %98 = getelementptr inbounds nuw i8, ptr %0, i64 33680
  %99 = load ptr, ptr %98, align 8, !tbaa !140
  %100 = load i8, ptr %99, align 1, !tbaa !77
  %101 = zext i8 %100 to i32
  %102 = shl nuw nsw i32 %101, 9
  %103 = getelementptr inbounds nuw i8, ptr %99, i64 1
  %104 = load i8, ptr %103, align 1, !tbaa !77
  %105 = zext i8 %104 to i32
  %106 = shl nuw nsw i32 %105, 1
  %107 = or disjoint i32 %106, %102
  %108 = add nsw i32 %107, -65535
  %109 = shl nsw i32 %108, %97
  %110 = add i32 %109, %87
  %111 = getelementptr inbounds nuw i8, ptr %99, i64 2
  store ptr %111, ptr %98, align 8, !tbaa !140
  br label %get_cabac.exit16

get_cabac.exit16:                                 ; preds = %60, %89
  %112 = phi i32 [ %87, %60 ], [ %110, %89 ]
  %113 = and i32 %78, 1
  %114 = zext i8 %81 to i32
  %115 = shl i32 %86, 1
  %116 = and i32 %115, 384
  %117 = add nuw nsw i32 %116, %114
  %118 = zext nneg i32 %117 to i64
  %119 = getelementptr inbounds nuw i8, ptr getelementptr inbounds nuw (i8, ptr @ff_h264_cabac_tables, i64 512), i64 %118
  %120 = load i8, ptr %119, align 1, !tbaa !77
  %121 = zext i8 %120 to i32
  %122 = sub nsw i32 %86, %121
  %123 = shl i32 %122, 17
  %124 = icmp slt i32 %123, %112
  %125 = sext i1 %124 to i32
  %126 = select i1 %124, i32 %123, i32 0
  %127 = sub nsw i32 %112, %126
  %128 = select i1 %124, i32 %121, i32 %122
  %129 = xor i32 %125, %114
  %130 = sext i32 %129 to i64
  %131 = getelementptr inbounds i8, ptr getelementptr inbounds nuw (i8, ptr @ff_h264_cabac_tables, i64 1152), i64 %130
  %132 = load i8, ptr %131, align 1, !tbaa !77
  store i8 %132, ptr %61, align 1, !tbaa !77
  %133 = sext i32 %128 to i64
  %134 = getelementptr inbounds i8, ptr @ff_h264_cabac_tables, i64 %133
  %135 = load i8, ptr %134, align 1, !tbaa !77
  %136 = zext i8 %135 to i32
  %137 = shl i32 %128, %136
  store i32 %137, ptr %7, align 4, !tbaa !138
  %138 = shl i32 %127, %136
  store i32 %138, ptr %3, align 8, !tbaa !139
  %139 = and i32 %138, 65535
  %.not.i.i17 = icmp eq i32 %139, 0
  br i1 %.not.i.i17, label %140, label %get_cabac.exit18

140:                                              ; preds = %get_cabac.exit16
  %141 = add nsw i32 %138, -1
  %142 = xor i32 %141, %138
  %143 = lshr i32 %142, 15
  %144 = zext nneg i32 %143 to i64
  %145 = getelementptr inbounds nuw i8, ptr @ff_h264_cabac_tables, i64 %144
  %146 = load i8, ptr %145, align 1, !tbaa !77
  %147 = zext i8 %146 to i32
  %148 = sub nsw i32 7, %147
  %149 = getelementptr inbounds nuw i8, ptr %0, i64 33680
  %150 = load ptr, ptr %149, align 8, !tbaa !140
  %151 = load i8, ptr %150, align 1, !tbaa !77
  %152 = zext i8 %151 to i32
  %153 = shl nuw nsw i32 %152, 9
  %154 = getelementptr inbounds nuw i8, ptr %150, i64 1
  %155 = load i8, ptr %154, align 1, !tbaa !77
  %156 = zext i8 %155 to i32
  %157 = shl nuw nsw i32 %156, 1
  %158 = or disjoint i32 %157, %153
  %159 = add nsw i32 %158, -65535
  %160 = shl nsw i32 %159, %148
  %161 = add i32 %160, %138
  %162 = getelementptr inbounds nuw i8, ptr %150, i64 2
  store ptr %162, ptr %149, align 8, !tbaa !140
  br label %get_cabac.exit18

get_cabac.exit18:                                 ; preds = %get_cabac.exit16, %140
  %163 = phi i32 [ %138, %get_cabac.exit16 ], [ %161, %140 ]
  %164 = shl nsw i32 %129, 1
  %165 = and i32 %164, 2
  %166 = or disjoint i32 %165, %113
  %167 = zext i8 %132 to i32
  %168 = shl i32 %137, 1
  %169 = and i32 %168, 384
  %170 = add nuw nsw i32 %169, %167
  %171 = zext nneg i32 %170 to i64
  %172 = getelementptr inbounds nuw i8, ptr getelementptr inbounds nuw (i8, ptr @ff_h264_cabac_tables, i64 512), i64 %171
  %173 = load i8, ptr %172, align 1, !tbaa !77
  %174 = zext i8 %173 to i32
  %175 = sub nsw i32 %137, %174
  %176 = shl i32 %175, 17
  %177 = icmp slt i32 %176, %163
  %178 = sext i1 %177 to i32
  %179 = select i1 %177, i32 %176, i32 0
  %180 = sub nsw i32 %163, %179
  %181 = select i1 %177, i32 %174, i32 %175
  %182 = xor i32 %178, %167
  %183 = sext i32 %182 to i64
  %184 = getelementptr inbounds i8, ptr getelementptr inbounds nuw (i8, ptr @ff_h264_cabac_tables, i64 1152), i64 %183
  %185 = load i8, ptr %184, align 1, !tbaa !77
  store i8 %185, ptr %61, align 1, !tbaa !77
  %186 = sext i32 %181 to i64
  %187 = getelementptr inbounds i8, ptr @ff_h264_cabac_tables, i64 %186
  %188 = load i8, ptr %187, align 1, !tbaa !77
  %189 = zext i8 %188 to i32
  %190 = shl i32 %181, %189
  store i32 %190, ptr %7, align 4, !tbaa !138
  %191 = shl i32 %180, %189
  store i32 %191, ptr %3, align 8, !tbaa !139
  %192 = and i32 %191, 65535
  %.not.i.i19 = icmp eq i32 %192, 0
  br i1 %.not.i.i19, label %193, label %get_cabac.exit20

193:                                              ; preds = %get_cabac.exit18
  %194 = add nsw i32 %191, -1
  %195 = xor i32 %194, %191
  %196 = lshr i32 %195, 15
  %197 = zext nneg i32 %196 to i64
  %198 = getelementptr inbounds nuw i8, ptr @ff_h264_cabac_tables, i64 %197
  %199 = load i8, ptr %198, align 1, !tbaa !77
  %200 = zext i8 %199 to i32
  %201 = sub nsw i32 7, %200
  %202 = getelementptr inbounds nuw i8, ptr %0, i64 33680
  %203 = load ptr, ptr %202, align 8, !tbaa !140
  %204 = load i8, ptr %203, align 1, !tbaa !77
  %205 = zext i8 %204 to i32
  %206 = shl nuw nsw i32 %205, 9
  %207 = getelementptr inbounds nuw i8, ptr %203, i64 1
  %208 = load i8, ptr %207, align 1, !tbaa !77
  %209 = zext i8 %208 to i32
  %210 = shl nuw nsw i32 %209, 1
  %211 = or disjoint i32 %210, %206
  %212 = add nsw i32 %211, -65535
  %213 = shl nsw i32 %212, %201
  %214 = add i32 %213, %191
  store i32 %214, ptr %3, align 8, !tbaa !139
  %215 = getelementptr inbounds nuw i8, ptr %203, i64 2
  store ptr %215, ptr %202, align 8, !tbaa !140
  br label %get_cabac.exit20

get_cabac.exit20:                                 ; preds = %get_cabac.exit18, %193
  %216 = shl nsw i32 %182, 2
  %217 = and i32 %216, 4
  %218 = or disjoint i32 %166, %217
  %219 = icmp samesign uge i32 %218, %1
  %220 = zext i1 %219 to i32
  %221 = add nuw nsw i32 %218, %220
  br label %222

222:                                              ; preds = %get_cabac.exit, %get_cabac.exit20
  %.0 = phi i32 [ %221, %get_cabac.exit20 ], [ %1, %get_cabac.exit ]
  ret i32 %.0
}